; Function Attrs: mustprogress nofree norecurse nosync nounwind willreturn memory(argmem: write) uwtable
define void @_ZN6icu_7718UStringEnumerationC2EP12UEnumeration(ptr noundef nonnull align 8 dereferenceable(128) initializes((8, 18)) %0, ptr noundef %1) unnamed_addr #0 align 2 personality ptr @__gxx_personality_v0 {
  %3 = getelementptr inbounds nuw i8, ptr %0, i64 8
  store ptr getelementptr inbounds nuw inrange(-16, 88) (i8, ptr @_ZTVN6icu_7713UnicodeStringE, i64 16), ptr %3, align 8, !tbaa !3
  %4 = getelementptr inbounds nuw i8, ptr %0, i64 16
  store i16 2, ptr %4, align 8, !tbaa !6
  %5 = getelementptr inbounds nuw i8, ptr %0, i64 104
  %6 = getelementptr inbounds nuw i8, ptr %0, i64 72
  store ptr %6, ptr %5, align 8, !tbaa !8
  %7 = getelementptr inbounds nuw i8, ptr %0, i64 112
  store i32 32, ptr %7, align 8, !tbaa !16
  store ptr getelementptr inbounds nuw inrange(-16, 88) (i8, ptr @_ZTVN6icu_7718UStringEnumerationE, i64 16), ptr %0, align 8, !tbaa !3
  %8 = getelementptr inbounds nuw i8, ptr %0, i64 120
  store ptr %1, ptr %8, align 8, !tbaa !24
  ret void
}